; Function Attrs: mustprogress nofree norecurse nosync nounwind willreturn memory(argmem: write) uwtable
define void @_ZN17colvarproxy_atomsC2Ev(ptr noundef nonnull writeonly align 8 captures(none) dereferenceable(199) initializes((0, 199)) %0) unnamed_addr #8 align 2 {
  store ptr getelementptr inbounds nuw inrange(-16, 64) (i8, ptr @_ZTV17colvarproxy_atoms, i64 16), ptr %0, align 8, !tbaa !36
  %2 = getelementptr inbounds nuw i8, ptr %0, i64 8
  %3 = getelementptr inbounds nuw i8, ptr %0, i64 192
  tail call void @llvm.memset.p0.i64(ptr noundef nonnull align 8 dereferenceable(184) %2, i8 0, i64 184, i1 false)
  store i32 -1, ptr %3, align 8, !tbaa !112
  %4 = getelementptr inbounds nuw i8, ptr %0, i64 196
  store i8 0, ptr %4, align 4, !tbaa !113
  %5 = getelementptr inbounds nuw i8, ptr %0, i64 198
  store i8 0, ptr %5, align 2, !tbaa !114
  %6 = getelementptr inbounds nuw i8, ptr %0, i64 197
  store i8 0, ptr %6, align 1, !tbaa !115
  ret void
}